; ModuleID = '5/116.c'
source_filename = "5/116.c"
target datalayout = "e-m:e-p270:32:32-p271:32:32-p272:64:64-i64:64-f80:128-n8:16:32:64-S128"
target triple = "x86_64-pc-linux-gnu"

@.str = private unnamed_addr constant [4 x i8] c"%lf\00", align 1
@.str.1 = private unnamed_addr constant [3 x i8] c"%s\00", align 1
@.str.2 = private unnamed_addr constant [4 x i8] c"yes\00", align 1
@.str.3 = private unnamed_addr constant [3 x i8] c"no\00", align 1
@.str.4 = private unnamed_addr constant [6 x i8] c"error\00", align 1

; Function Attrs: noinline nounwind uwtable
define dso_local i32 @main() #0 {
  %1 = alloca i32, align 4
  %2 = alloca i32, align 4
  %3 = alloca i32, align 4
  %4 = alloca i32, align 4
  %5 = alloca i32, align 4
  %6 = alloca i32, align 4
  %7 = alloca double, align 8
  %8 = alloca double, align 8
  %9 = alloca [500 x i8], align 16
  %10 = alloca [500 x i8], align 16
  store i32 0, i32* %1, align 4
  store i32 0, i32* %4, align 4
  store i32 0, i32* %6, align 4
  %11 = call i32 (i8*, ...) @__isoc99_scanf(i8* getelementptr inbounds ([4 x i8], [4 x i8]* @.str, i64 0, i64 0), double* %7)
  %12 = getelementptr inbounds [500 x i8], [500 x i8]* %9, i64 0, i64 0
  %13 = call i32 (i8*, ...) @__isoc99_scanf(i8* getelementptr inbounds ([3 x i8], [3 x i8]* @.str.1, i64 0, i64 0), i8* %12)
  %14 = getelementptr inbounds [500 x i8], [500 x i8]* %10, i64 0, i64 0
  %15 = call i32 (i8*, ...) @__isoc99_scanf(i8* getelementptr inbounds ([3 x i8], [3 x i8]* @.str.1, i64 0, i64 0), i8* %14)
  %16 = getelementptr inbounds [500 x i8], [500 x i8]* %9, i64 0, i64 0
  %17 = call i64 @strlen(i8* %16) #3
  %18 = trunc i64 %17 to i32
  store i32 %18, i32* %2, align 4
  %19 = getelementptr inbounds [500 x i8], [500 x i8]* %10, i64 0, i64 0
  %20 = call i64 @strlen(i8* %19) #3
  %21 = trunc i64 %20 to i32
  store i32 %21, i32* %5, align 4
  store i32 0, i32* %3, align 4
  br label %22

22:                                               ; preds = %42, %0
  %23 = load i32, i32* %3, align 4
  %24 = load i32, i32* %2, align 4
  %25 = icmp slt i32 %23, %24
  br i1 %25, label %26, label %45

26:                                               ; preds = %22
  %27 = load i32, i32* %3, align 4
  %28 = sext i32 %27 to i64
  %29 = getelementptr inbounds [500 x i8], [500 x i8]* %9, i64 0, i64 %28
  %30 = load i8, i8* %29, align 1
  %31 = sext i8 %30 to i32
  %32 = load i32, i32* %3, align 4
  %33 = sext i32 %32 to i64
  %34 = getelementptr inbounds [500 x i8], [500 x i8]* %10, i64 0, i64 %33
  %35 = load i8, i8* %34, align 1
  %36 = sext i8 %35 to i32
  %37 = icmp eq i32 %31, %36
  br i1 %37, label %38, label %41

38:                                               ; preds = %26
  %39 = load i32, i32* %4, align 4
  %40 = add nsw i32 %39, 1
  store i32 %40, i32* %4, align 4
  br label %41

41:                                               ; preds = %38, %26
  br label %42

42:                                               ; preds = %41
  %43 = load i32, i32* %3, align 4
  %44 = add nsw i32 %43, 1
  store i32 %44, i32* %3, align 4
  br label %22

45:                                               ; preds = %22
  store i32 0, i32* %3, align 4
  br label %46

46:                                               ; preds = %113, %45
  %47 = load i32, i32* %3, align 4
  %48 = load i32, i32* %2, align 4
  %49 = icmp slt i32 %47, %48
  br i1 %49, label %50, label %116

50:                                               ; preds = %46
  %51 = load i32, i32* %3, align 4
  %52 = sext i32 %51 to i64
  %53 = getelementptr inbounds [500 x i8], [500 x i8]* %9, i64 0, i64 %52
  %54 = load i8, i8* %53, align 1
  %55 = sext i8 %54 to i32
  %56 = icmp eq i32 %55, 65
  br i1 %56, label %78, label %57

57:                                               ; preds = %50
  %58 = load i32, i32* %3, align 4
  %59 = sext i32 %58 to i64
  %60 = getelementptr inbounds [500 x i8], [500 x i8]* %9, i64 0, i64 %59
  %61 = load i8, i8* %60, align 1
  %62 = sext i8 %61 to i32
  %63 = icmp eq i32 %62, 84
  br i1 %63, label %78, label %64

64:                                               ; preds = %57
  %65 = load i32, i32* %3, align 4
  %66 = sext i32 %65 to i64
  %67 = getelementptr inbounds [500 x i8], [500 x i8]* %9, i64 0, i64 %66
  %68 = load i8, i8* %67, align 1
  %69 = sext i8 %68 to i32
  %70 = icmp eq i32 %69, 67
  br i1 %70, label %78, label %71

71:                                               ; preds = %64
  %72 = load i32, i32* %3, align 4
  %73 = sext i32 %72 to i64
  %74 = getelementptr inbounds [500 x i8], [500 x i8]* %9, i64 0, i64 %73
  %75 = load i8, i8* %74, align 1
  %76 = sext i8 %75 to i32
  %77 = icmp eq i32 %76, 71
  br i1 %77, label %78, label %81

78:                                               ; preds = %71, %64, %57, %50
  %79 = load i32, i32* %6, align 4
  %80 = add nsw i32 %79, 1
  store i32 %80, i32* %6, align 4
  br label %81

81:                                               ; preds = %78, %71
  %82 = load i32, i32* %3, align 4
  %83 = sext i32 %82 to i64
  %84 = getelementptr inbounds [500 x i8], [500 x i8]* %10, i64 0, i64 %83
  %85 = load i8, i8* %84, align 1
  %86 = sext i8 %85 to i32
  %87 = icmp eq i32 %86, 65
  br i1 %87, label %109, label %88

88:                                               ; preds = %81
  %89 = load i32, i32* %3, align 4
  %90 = sext i32 %89 to i64
  %91 = getelementptr inbounds [500 x i8], [500 x i8]* %10, i64 0, i64 %90
  %92 = load i8, i8* %91, align 1
  %93 = sext i8 %92 to i32
  %94 = icmp eq i32 %93, 84
  br i1 %94, label %109, label %95

95:                                               ; preds = %88
  %96 = load i32, i32* %3, align 4
  %97 = sext i32 %96 to i64
  %98 = getelementptr inbounds [500 x i8], [500 x i8]* %10, i64 0, i64 %97
  %99 = load i8, i8* %98, align 1
  %100 = sext i8 %99 to i32
  %101 = icmp eq i32 %100, 67
  br i1 %101, label %109, label %102

102:                                              ; preds = %95
  %103 = load i32, i32* %3, align 4
  %104 = sext i32 %103 to i64
  %105 = getelementptr inbounds [500 x i8], [500 x i8]* %10, i64 0, i64 %104
  %106 = load i8, i8* %105, align 1
  %107 = sext i8 %106 to i32
  %108 = icmp eq i32 %107, 71
  br i1 %108, label %109, label %112

109:                                              ; preds = %102, %95, %88, %81
  %110 = load i32, i32* %6, align 4
  %111 = add nsw i32 %110, 1
  store i32 %111, i32* %6, align 4
  br label %112

112:                                              ; preds = %109, %102
  br label %113

113:                                              ; preds = %112
  %114 = load i32, i32* %3, align 4
  %115 = add nsw i32 %114, 1
  store i32 %115, i32* %3, align 4
  br label %46

116:                                              ; preds = %46
  %117 = load i32, i32* %4, align 4
  %118 = sitofp i32 %117 to double
  %119 = fmul double %118, 1.000000e+00
  %120 = load i32, i32* %2, align 4
  %121 = sitofp i32 %120 to double
  %122 = fdiv double %119, %121
  store double %122, double* %8, align 8
  %123 = load i32, i32* %2, align 4
  %124 = load i32, i32* %5, align 4
  %125 = icmp eq i32 %123, %124
  br i1 %125, label %126, label %146

126:                                              ; preds = %116
  %127 = load i32, i32* %6, align 4
  %128 = load i32, i32* %2, align 4
  %129 = load i32, i32* %5, align 4
  %130 = add nsw i32 %128, %129
  %131 = icmp eq i32 %127, %130
  br i1 %131, label %132, label %146

132:                                              ; preds = %126
  %133 = load double, double* %8, align 8
  %134 = load double, double* %7, align 8
  %135 = fcmp oge double %133, %134
  br i1 %135, label %136, label %138

136:                                              ; preds = %132
  %137 = call i32 (i8*, ...) @printf(i8* getelementptr inbounds ([4 x i8], [4 x i8]* @.str.2, i64 0, i64 0))
  br label %145

138:                                              ; preds = %132
  %139 = load double, double* %8, align 8
  %140 = load double, double* %7, align 8
  %141 = fcmp olt double %139, %140
  br i1 %141, label %142, label %144

142:                                              ; preds = %138
  %143 = call i32 (i8*, ...) @printf(i8* getelementptr inbounds ([3 x i8], [3 x i8]* @.str.3, i64 0, i64 0))
  br label %144

144:                                              ; preds = %142, %138
  br label %145

145:                                              ; preds = %144, %136
  br label %148

146:                                              ; preds = %126, %116
  %147 = call i32 (i8*, ...) @printf(i8* getelementptr inbounds ([6 x i8], [6 x i8]* @.str.4, i64 0, i64 0))
  br label %148

148:                                              ; preds = %146, %145
  ret i32 0
}

declare dso_local i32 @__isoc99_scanf(i8*, ...) #1

; Function Attrs: nounwind readonly
declare dso_local i64 @strlen(i8*) #2

declare dso_local i32 @printf(i8*, ...) #1


!llvm.module.flags = !{!0}
!llvm.ident = !{!1}

!0 = !{i32 1, !"wchar_size", i32 4}
!1 = !{!"clang version 10.0.0-4ubuntu1 "}
